Certificate:
    Data:
        Version: 3 (0x2)
        Serial Number: 4096 (0x1000)
    Signature Algorithm: sha256WithRSAEncryption
        Issuer: O=nginx-proxy test suite, CN=www.nginx-proxy.tld
        Validity
            Not Before: Jun  5 18:01:58 2018 GMT
            Not After : Oct 21 18:01:58 2045 GMT
        Subject: CN=vcap.me
        Subject Public Key Info:
            Public Key Algorithm: rsaEncryption
                Public-Key: (2048 bit)
                Modulus:
                    00:ce:be:86:29:02:c9:df:3f:8f:40:5c:77:31:e9:
                    f1:15:ac:2c:c9:44:f3:29:3e:4c:a2:fe:f9:ce:d9:
                    f8:74:d4:91:7c:6c:73:65:b3:7b:79:3b:3d:16:ef:
                    5a:3a:11:65:f5:17:e2:9b:97:4b:a5:a8:d3:ce:0c:
                    b4:4f:bb:5f:ca:9f:81:74:70:e7:52:00:18:a0:29:
                    34:12:f7:73:fa:02:e7:b3:0d:86:f7:8a:ed:c8:9d:
                    ef:e2:69:a9:6c:2f:f8:66:bd:5f:e6:b9:58:33:b4:
                    df:55:79:61:72:89:52:4f:da:e9:f1:e8:1b:43:9d:
                    be:f9:71:d9:18:8a:26:9b:93:cf:bd:76:81:a7:7e:
                    58:83:41:f8:c1:d7:cb:7b:28:ca:ff:87:d0:5e:79:
                    cb:06:a5:12:78:90:bd:6e:3a:3c:a4:38:c2:43:1e:
                    a1:3e:38:f6:8b:96:fb:d0:02:4e:0e:ef:67:f5:8b:
                    ca:5b:7b:79:f8:03:c0:9b:84:c5:b7:02:cc:81:3e:
                    21:82:1b:eb:c6:f4:1f:28:1e:11:d7:33:43:32:d3:
                    ef:26:5d:23:bd:99:ee:31:50:74:7a:f1:10:22:6d:
                    6e:4c:50:8b:0f:e5:0b:0f:f8:ee:9c:e2:b5:4b:86:
                    36:19:d6:d2:e5:b7:2c:a9:7c:1f:8a:15:6d:1d:bc:
                    a2:b3
                Exponent: 65537 (0x10001)
        X509v3 extensions:
            X509v3 Subject Alternative Name: 
                DNS:vcap.me, DNS:*.vcap.me
    Signature Algorithm: sha256WithRSAEncryption
         58:94:45:7a:58:7f:6f:2d:2c:97:ad:c2:34:1f:97:a6:d1:e0:
         34:79:c4:70:6e:7d:e7:de:4d:d1:21:2b:88:c2:f3:29:52:f7:
         6f:9a:1d:1e:80:8d:36:85:b8:17:16:27:a4:a5:58:6c:b1:79:
         cc:3c:6f:dc:a4:e0:59:f7:36:43:00:c1:7c:d9:6e:59:66:ed:
         ef:2b:96:63:8a:c3:1e:29:97:62:df:f0:aa:99:52:4d:fa:d4:
         d0:04:3b:84:5c:1e:a7:a9:12:74:37:2d:e9:d8:0c:9e:b8:49:
         24:48:45:39:24:c4:79:96:8a:79:00:25:28:43:45:12:fb:45:
         6b:8b:c0:ff:d3:ba:c0:fd:cd:b5:23:32:5e:1b:a5:b0:85:5b:
         6c:f2:a2:0c:4a:dc:ef:52:eb:39:a5:94:89:7c:a2:61:87:9e:
         86:d0:73:07:82:2d:92:b0:23:9d:bc:f3:52:32:55:b2:f1:60:
         dd:7a:1b:5f:17:05:bf:e9:93:6e:c9:22:7a:1b:7d:43:d1:96:
         da:9d:0f:d7:c3:a7:3e:1c:7c:72:b5:5f:25:d3:34:b3:de:ee:
         04:e8:2b:1d:a1:a9:3d:5d:bf:1b:80:a4:0c:29:b4:5f:c5:f8:
         20:9e:39:0c:e6:fd:a5:3c:b4:89:60:86:8e:10:3f:67:bf:a6:
         c8:00:02:4e
-----BEGIN CERTIFICATE-----
MIIC7jCCAdagAwIBAgICEAAwDQYJKoZIhvcNAQELBQAwPzEfMB0GA1UECgwWbmdp
bngtcHJveHkgdGVzdCBzdWl0ZTEcMBoGA1UEAwwTd3d3Lm5naW54LXByb3h5LnRs
ZDAeFw0xODA2MDUxODAxNThaFw00NTEwMjExODAxNThaMBIxEDAOBgNVBAMMB3Zj
YXAubWUwggEiMA0GCSqGSIb3DQEBAQUAA4IBDwAwggEKAoIBAQDOvoYpAsnfP49A
XHcx6fEVrCzJRPMpPkyi/vnO2fh01JF8bHNls3t5Oz0W71o6EWX1F+Kbl0ulqNPO
DLRPu1/Kn4F0cOdSABigKTQS93P6AuezDYb3iu3Ine/iaalsL/hmvV/muVgztN9V
eWFyiVJP2unx6BtDnb75cdkYiiabk8+9doGnfliDQfjB18t7KMr/h9BeecsGpRJ4
kL1uOjykOMJDHqE+OPaLlvvQAk4O72f1i8pbe3n4A8CbhMW3AsyBPiGCG+vG9B8o
HhHXM0My0+8mXSO9me4xUHR68RAibW5MUIsP5QsP+O6c4rVLhjYZ1tLltyypfB+K
FW0dvKKzAgMBAAGjITAfMB0GA1UdEQQWMBSCB3ZjYXAubWWCCSoudmNhcC5tZTAN
BgkqhkiG9w0BAQsFAAOCAQEAWJRFelh/by0sl63CNB+XptHgNHnEcG59595N0SEr
iMLzKVL3b5odHoCNNoW4FxYnpKVYbLF5zDxv3KTgWfc2QwDBfNluWWbt7yuWY4rD
HimXYt/wqplSTfrU0AQ7hFwep6kSdDct6dgMnrhJJEhFOSTEeZaKeQAlKENFEvtF
a4vA/9O6wP3NtSMyXhulsIVbbPKiDErc71LrOaWUiXyiYYeehtBzB4ItkrAjnbzz
UjJVsvFg3XobXxcFv+mTbskieht9Q9GW2p0P18OnPhx8crVfJdM0s97uBOgrHaGp
PV2/G4CkDCm0X8X4IJ45DOb9pTy0iWCGjhA/Z7+myAACTg==
-----END CERTIFICATE-----
